(lp0
(dp1
Vdomain
p2
Vwww.instagram.com
p3
sVname
p4
Vcsrftoken
p5
sVvalue
p6
Vx75BPA5PVsGqkT79woIT7SIaF27g6lTI
p7
sVexpiry
p8
I1507858698
sVpath
p9
V/
p10
sVhttpOnly
p11
I00
sVsecure
p12
I01
sa(dp13
Vdomain
p14
Vwww.instagram.com
p15
sVname
p16
Vmid
p17
sVvalue
p18
VWAA3CAAEAAFdJojBAdg1MCrZfS-q
p19
sVexpiry
p20
I2107129098
sVpath
p21
g10
sVhttpOnly
p22
I00
sVsecure
p23
I00
sa(dp24
Vdomain
p25
Vwww.instagram.com
p26
sVname
p27
Vig_pr
p28
sVvalue
p29
V1
p30
sVexpiry
p31
NsVpath
p32
g10
sVhttpOnly
p33
I00
sVsecure
p34
I00
sa(dp35
Vdomain
p36
Vwww.instagram.com
p37
sVname
p38
Vig_vw
p39
sVvalue
p40
V1268
p41
sVexpiry
p42
NsVpath
p43
g10
sVhttpOnly
p44
I00
sVsecure
p45
I00
sa.