(lp0
(dp1
Vdomain
p2
Vwww.instagram.com
p3
sVname
p4
Vmid
p5
sVvalue
p6
VWAAyCwAEAAH8BloP6xeJiMgD3jWy
p7
sVexpiry
p8
I2107127821
sVpath
p9
V/
p10
sVhttpOnly
p11
I00
sVsecure
p12
I00
sa(dp13
Vdomain
p14
Vwww.instagram.com
p15
sVname
p16
Vig_pr
p17
sVvalue
p18
V1
p19
sVexpiry
p20
NsVpath
p21
g10
sVhttpOnly
p22
I00
sVsecure
p23
I00
sa(dp24
Vdomain
p25
Vwww.instagram.com
p26
sVname
p27
Vig_vw
p28
sVvalue
p29
V1268
p30
sVexpiry
p31
NsVpath
p32
g10
sVhttpOnly
p33
I00
sVsecure
p34
I00
sa(dp35
Vdomain
p36
Vwww.instagram.com
p37
sVname
p38
Vcsrftoken
p39
sVvalue
p40
Vw9xxKc3HsclPRSaz7GA2wt64XUqoks3c
p41
sVexpiry
p42
I1507857425
sVpath
p43
g10
sVhttpOnly
p44
I00
sVsecure
p45
I01
sa.